target datalayout = "e-m:e-p270:32:32-p271:32:32-p272:64:64-i64:64-i128:128-f80:128-n8:16:32:64-S128"
target triple = "x86_64-pc-linux-gnu"

%struct._object = type { %union.anon, ptr }
%union.anon = type { i64 }
%struct.PyVarObject = type { %struct._object, i64 }
%struct._typeobject = type { %struct.PyVarObject, ptr, i64, i64, ptr, i64, ptr, ptr, ptr, ptr, ptr, ptr, ptr, ptr, ptr, ptr, ptr, ptr, ptr, i64, ptr, ptr, ptr, ptr, i64, ptr, ptr, ptr, ptr, ptr, ptr, ptr, ptr, ptr, i64, ptr, ptr, ptr, ptr, ptr, ptr, ptr, ptr, ptr, ptr, ptr, i32, ptr, ptr, i8, i16 }
%struct.gaobject = type { %struct._object, ptr, ptr, ptr, ptr, i8, ptr }

@attr_exceptions = internal constant [13 x ptr] [ptr @.str.14, ptr @.str.15, ptr @.str.16, ptr @.str.17, ptr @.str.18, ptr @.str.19, ptr @.str.20, ptr @.str.21, ptr @.str.22, ptr @.str.8, ptr @.str.23, ptr @.str.24, ptr null], align 16

; Function Attrs: inlinehint nounwind uwtable
define internal i32 @PyType_HasFeature(ptr noundef %0, i64 noundef %1) #2 {
  %3 = alloca ptr, align 8
  %4 = alloca i64, align 8
  %5 = alloca i64, align 8
  store ptr %0, ptr %3, align 8, !tbaa !18
  store i64 %1, ptr %4, align 8, !tbaa !9
  call void @llvm.lifetime.start.p0(i64 8, ptr %5) #5
  %6 = load ptr, ptr %3, align 8, !tbaa !18
  %7 = getelementptr inbounds nuw %struct._typeobject, ptr %6, i32 0, i32 19
  %8 = load i64, ptr %7, align 8, !tbaa !20
  store i64 %8, ptr %5, align 8, !tbaa !9
  %9 = load i64, ptr %5, align 8, !tbaa !9
  %10 = load i64, ptr %4, align 8, !tbaa !9
  %11 = and i64 %9, %10
  %12 = icmp ne i64 %11, 0
  %13 = zext i1 %12 to i32
  call void @llvm.lifetime.end.p0(i64 8, ptr %5) #5
  ret i32 %13
}

; Function Attrs: inlinehint nounwind uwtable
define internal ptr @_Py_TYPE(ptr noundef %0) #2 {
  %2 = alloca ptr, align 8
  store ptr %0, ptr %2, align 8, !tbaa !4
  %3 = load ptr, ptr %2, align 8, !tbaa !4
  %4 = getelementptr inbounds nuw %struct._object, ptr %3, i32 0, i32 1
  %5 = load ptr, ptr %4, align 8, !tbaa !29
  ret ptr %5
}

; Function Attrs: nounwind uwtable
define internal ptr @ga_getattro(ptr noundef %0, ptr noundef %1) #0 {
  %3 = alloca ptr, align 8
  %4 = alloca ptr, align 8
  %5 = alloca ptr, align 8
  %6 = alloca ptr, align 8
  %7 = alloca ptr, align 8
  %8 = alloca i32, align 4
  store ptr %0, ptr %4, align 8, !tbaa !4
  store ptr %1, ptr %5, align 8, !tbaa !4
  call void @llvm.lifetime.start.p0(i64 8, ptr %6) #5
  %9 = load ptr, ptr %4, align 8, !tbaa !4
  store ptr %9, ptr %6, align 8, !tbaa !16
  %10 = load ptr, ptr %5, align 8, !tbaa !4
  %11 = call ptr @_Py_TYPE(ptr noundef %10)
  %12 = call i32 @PyType_HasFeature(ptr noundef %11, i64 noundef 268435456)
  %13 = icmp ne i32 %12, 0
  br i1 %13, label %14, label %39

14:                                               ; preds = %2
  call void @llvm.lifetime.start.p0(i64 8, ptr %7) #5
  store ptr @attr_exceptions, ptr %7, align 8, !tbaa !54
  br label %15

15:                                               ; preds = %33, %14
  %16 = load ptr, ptr %7, align 8, !tbaa !54
  %17 = load ptr, ptr %16, align 8, !tbaa !56
  %18 = icmp eq ptr %17, null
  br i1 %18, label %19, label %25

19:                                               ; preds = %15
  %20 = load ptr, ptr %6, align 8, !tbaa !16
  %21 = getelementptr inbounds nuw %struct.gaobject, ptr %20, i32 0, i32 1
  %22 = load ptr, ptr %21, align 8, !tbaa !41
  %23 = load ptr, ptr %5, align 8, !tbaa !4
  %24 = call ptr @PyObject_GetAttr(ptr noundef %22, ptr noundef %23)
  store ptr %24, ptr %3, align 8
  store i32 1, ptr %8, align 4
  br label %36

25:                                               ; preds = %15
  %26 = load ptr, ptr %5, align 8, !tbaa !4
  %27 = load ptr, ptr %7, align 8, !tbaa !54
  %28 = load ptr, ptr %27, align 8, !tbaa !56
  %29 = call i32 @_PyUnicode_EqualToASCIIString(ptr noundef %26, ptr noundef %28)
  %30 = icmp ne i32 %29, 0
  br i1 %30, label %31, label %32

31:                                               ; preds = %25
  store i32 2, ptr %8, align 4
  br label %36

32:                                               ; preds = %25
  br label %33

33:                                               ; preds = %32
  %34 = load ptr, ptr %7, align 8, !tbaa !54
  %35 = getelementptr ptr, ptr %34, i32 1
  store ptr %35, ptr %7, align 8, !tbaa !54
  br label %15

36:                                               ; preds = %31, %19
  call void @llvm.lifetime.end.p0(i64 8, ptr %7) #5
  %37 = load i32, ptr %8, align 4
  switch i32 %37, label %43 [
    i32 2, label %38
  ]

38:                                               ; preds = %36
  br label %39

39:                                               ; preds = %38, %2
  %40 = load ptr, ptr %4, align 8, !tbaa !4
  %41 = load ptr, ptr %5, align 8, !tbaa !4
  %42 = call ptr @PyObject_GenericGetAttr(ptr noundef %40, ptr noundef %41)
  store ptr %42, ptr %3, align 8
  store i32 1, ptr %8, align 4
  br label %43

43:                                               ; preds = %39, %36
  call void @llvm.lifetime.end.p0(i64 8, ptr %6) #5
  %44 = load ptr, ptr %3, align 8
  ret ptr %44
}