; Function Attrs: nounwind uwtable
define internal ptr @ga_getattro(ptr noundef %0, ptr noundef %1) #0 {
  %3 = getelementptr i8, ptr %1, i64 8
  %.val = load ptr, ptr %3, align 8, !tbaa !14
  %4 = getelementptr i8, ptr %.val, i64 168
  %.val16 = load i64, ptr %4, align 8, !tbaa !15
  %5 = and i64 %.val16, 268435456
  %.not = icmp eq i64 %5, 0
  br i1 %.not, label %.loopexit, label %.preheader

6:                                                ; preds = %.preheader
  %7 = getelementptr i8, ptr %.01118, i64 8
  %8 = load ptr, ptr %7, align 8, !tbaa !54
  %.not15 = icmp eq ptr %8, null
  br i1 %.not15, label %.thread, label %.preheader

.thread:                                          ; preds = %6
  %9 = getelementptr inbounds nuw i8, ptr %0, i64 16
  %10 = load ptr, ptr %9, align 8, !tbaa !33
  %11 = tail call ptr @PyObject_GetAttr(ptr noundef %10, ptr noundef %1) #5
  br label %15

.preheader:                                       ; preds = %2, %6
  %12 = phi ptr [ %8, %6 ], [ @.str.14, %2 ]
  %.01118 = phi ptr [ %7, %6 ], [ @attr_exceptions, %2 ]
  %13 = tail call i32 @_PyUnicode_EqualToASCIIString(ptr noundef %1, ptr noundef nonnull %12) #5
  %.not14 = icmp eq i32 %13, 0
  br i1 %.not14, label %6, label %.loopexit

.loopexit:                                        ; preds = %.preheader, %2
  %14 = tail call ptr @PyObject_GenericGetAttr(ptr noundef %0, ptr noundef %1) #5
  br label %15

15:                                               ; preds = %.thread, %.loopexit
  %.1 = phi ptr [ %14, %.loopexit ], [ %11, %.thread ]
  ret ptr %.1
}